target datalayout = "e-m:e-p270:32:32-p271:32:32-p272:64:64-i64:64-i128:128-f80:128-n8:16:32:64-S128"
target triple = "x86_64-pc-linux-gnu"

%struct.RStruct = type { %struct.RBasic, %union.anon }
%struct.RBasic = type { i64, i64 }
%union.anon = type { %struct.anon }
%struct.anon = type { i64, ptr }

@.str.58 = private unnamed_addr constant [4 x i8] c"...\00", align 1
@.str.59 = private unnamed_addr constant [14 x i8] c"(... ... ...)\00", align 1
@.str.60 = private unnamed_addr constant [13 x i8] c"(... .. ...)\00", align 1

; Function Attrs: inlinehint nounwind sspstrong willreturn memory(read) uwtable
define internal i64 @RB_FL_TEST_RAW(i64 noundef %0, i64 noundef %1) #7 {
  %3 = alloca i64, align 8
  %4 = alloca i64, align 8
  store i64 %0, ptr %3, align 8, !tbaa !7
  store i64 %1, ptr %4, align 8, !tbaa !7
  %5 = load i64, ptr %3, align 8, !tbaa !7
  %6 = inttoptr i64 %5 to ptr
  %7 = getelementptr inbounds nuw %struct.RBasic, ptr %6, i32 0, i32 0
  %8 = load i64, ptr %7, align 8, !tbaa !44
  %9 = load i64, ptr %4, align 8, !tbaa !7
  %10 = and i64 %8, %9
  ret i64 %10
}

; Function Attrs: inlinehint nounwind sspstrong uwtable
define internal ptr @RSTRUCT_CONST_PTR(i64 noundef %0) #3 {
  %2 = alloca ptr, align 8
  %3 = alloca i64, align 8
  %4 = alloca ptr, align 8
  %5 = alloca i32, align 4
  store i64 %0, ptr %3, align 8, !tbaa !7
  call void @llvm.lifetime.start.p0(i64 8, ptr %4) #18
  %6 = load i64, ptr %3, align 8, !tbaa !7
  %7 = inttoptr i64 %6 to ptr
  store ptr %7, ptr %4, align 8, !tbaa !42
  %8 = load i64, ptr %3, align 8, !tbaa !7
  %9 = call i64 @RB_FL_TEST_RAW(i64 noundef %8, i64 noundef 1040384) #21
  %10 = icmp ne i64 %9, 0
  br i1 %10, label %11, label %15

11:                                               ; preds = %1
  %12 = load ptr, ptr %4, align 8, !tbaa !42
  %13 = getelementptr inbounds nuw %struct.RStruct, ptr %12, i32 0, i32 1
  %14 = getelementptr inbounds [1 x i64], ptr %13, i64 0, i64 0
  store ptr %14, ptr %2, align 8
  store i32 1, ptr %5, align 4
  br label %20

15:                                               ; preds = %1
  %16 = load ptr, ptr %4, align 8, !tbaa !42
  %17 = getelementptr inbounds nuw %struct.RStruct, ptr %16, i32 0, i32 1
  %18 = getelementptr inbounds nuw %struct.anon, ptr %17, i32 0, i32 1
  %19 = load ptr, ptr %18, align 8, !tbaa !18
  store ptr %19, ptr %2, align 8
  store i32 1, ptr %5, align 4
  br label %20

20:                                               ; preds = %15, %11
  call void @llvm.lifetime.end.p0(i64 8, ptr %4) #18
  %21 = load ptr, ptr %2, align 8
  ret ptr %21
}

; Function Attrs: inlinehint nounwind sspstrong uwtable
define internal i64 @internal_RSTRUCT_GET(i64 noundef %0, i64 noundef %1) #3 {
  %3 = alloca i64, align 8
  %4 = alloca i64, align 8
  store i64 %0, ptr %3, align 8, !tbaa !7
  store i64 %1, ptr %4, align 8, !tbaa !7
  %5 = load i64, ptr %3, align 8, !tbaa !7
  %6 = call ptr @RSTRUCT_CONST_PTR(i64 noundef %5)
  %7 = load i64, ptr %4, align 8, !tbaa !7
  %8 = getelementptr i64, ptr %6, i64 %7
  %9 = load i64, ptr %8, align 8, !tbaa !7
  ret i64 %9
}

; Function Attrs: inlinehint nounwind sspstrong willreturn memory(none) uwtable
define internal zeroext i1 @RB_UNDEF_P(i64 noundef %0) #4 {
  %2 = alloca i64, align 8
  store i64 %0, ptr %2, align 8, !tbaa !7
  %3 = load i64, ptr %2, align 8, !tbaa !7
  %4 = icmp eq i64 %3, 36
  ret i1 %4
}

; Function Attrs: inlinehint nounwind sspstrong uwtable
define internal i64 @RANGE_END(i64 noundef %0) #3 {
  %2 = alloca i64, align 8
  store i64 %0, ptr %2, align 8, !tbaa !7
  %3 = load i64, ptr %2, align 8, !tbaa !7
  %4 = call i64 @internal_RSTRUCT_GET(i64 noundef %3, i64 noundef 1)
  ret i64 %4
}

; Function Attrs: inlinehint nounwind sspstrong willreturn memory(none) uwtable
define internal zeroext i1 @RB_NIL_P(i64 noundef %0) #4 {
  %2 = alloca i64, align 8
  store i64 %0, ptr %2, align 8, !tbaa !7
  %3 = load i64, ptr %2, align 8, !tbaa !7
  %4 = icmp eq i64 %3, 4
  ret i1 %4
}

; Function Attrs: inlinehint nounwind sspstrong uwtable
define internal i64 @RANGE_BEG(i64 noundef %0) #3 {
  %2 = alloca i64, align 8
  store i64 %0, ptr %2, align 8, !tbaa !7
  %3 = load i64, ptr %2, align 8, !tbaa !7
  %4 = inttoptr i64 %3 to ptr
  %5 = getelementptr inbounds nuw %struct.RStruct, ptr %4, i32 0, i32 1
  %6 = getelementptr [1 x i64], ptr %5, i64 0, i64 0
  %7 = load i64, ptr %6, align 8, !tbaa !18
  ret i64 %7
}

; Function Attrs: inlinehint nounwind sspstrong willreturn memory(none) uwtable
define internal zeroext i1 @RB_TEST(i64 noundef %0) #4 {
  %2 = alloca i64, align 8
  store i64 %0, ptr %2, align 8, !tbaa !7
  %3 = load i64, ptr %2, align 8, !tbaa !7
  %4 = and i64 %3, -5
  %5 = icmp ne i64 %4, 0
  ret i1 %5
}

; Function Attrs: inlinehint nounwind sspstrong uwtable
define internal i64 @RANGE_EXCL(i64 noundef %0) #3 {
  %2 = alloca i64, align 8
  store i64 %0, ptr %2, align 8, !tbaa !7
  %3 = load i64, ptr %2, align 8, !tbaa !7
  %4 = call i64 @internal_RSTRUCT_GET(i64 noundef %3, i64 noundef 2)
  ret i64 %4
}

; Function Attrs: nounwind sspstrong uwtable
define internal i64 @inspect_range(i64 noundef %0, i64 noundef %1, i32 noundef %2) #0 {
  %4 = alloca i64, align 8
  %5 = alloca i64, align 8
  %6 = alloca i64, align 8
  %7 = alloca i32, align 4
  %8 = alloca i64, align 8
  %9 = alloca i64, align 8
  %10 = alloca i32, align 4
  store i64 %0, ptr %5, align 8, !tbaa !7
  store i64 %1, ptr %6, align 8, !tbaa !7
  store i32 %2, ptr %7, align 4, !tbaa !11
  call void @llvm.lifetime.start.p0(i64 8, ptr %8) #18
  call void @llvm.lifetime.start.p0(i64 8, ptr %9) #18
  store i64 36, ptr %9, align 8, !tbaa !7
  %11 = load i32, ptr %7, align 4, !tbaa !11
  %12 = icmp ne i32 %11, 0
  br i1 %12, label %13, label %19

13:                                               ; preds = %3
  %14 = load i64, ptr %5, align 8, !tbaa !7
  %15 = call i64 @RANGE_EXCL(i64 noundef %14)
  %16 = call zeroext i1 @RB_TEST(i64 noundef %15) #19
  %17 = select i1 %16, ptr @.str.59, ptr @.str.60
  %18 = call i64 @rb_str_new_cstr(ptr noundef %17)
  store i64 %18, ptr %4, align 8
  store i32 1, ptr %10, align 4
  br label %62

19:                                               ; preds = %3
  %20 = load i64, ptr %5, align 8, !tbaa !7
  %21 = call i64 @RANGE_BEG(i64 noundef %20)
  %22 = call zeroext i1 @RB_NIL_P(i64 noundef %21) #19
  br i1 %22, label %23, label %27

23:                                               ; preds = %19
  %24 = load i64, ptr %5, align 8, !tbaa !7
  %25 = call i64 @RANGE_END(i64 noundef %24)
  %26 = call zeroext i1 @RB_NIL_P(i64 noundef %25) #19
  br i1 %26, label %27, label %32

27:                                               ; preds = %23, %19
  %28 = load i64, ptr %5, align 8, !tbaa !7
  %29 = call i64 @RANGE_BEG(i64 noundef %28)
  %30 = call i64 @rb_inspect(i64 noundef %29)
  %31 = call i64 @rb_str_dup(i64 noundef %30)
  store i64 %31, ptr %8, align 8, !tbaa !7
  br label %34

32:                                               ; preds = %23
  %33 = call i64 @rb_str_new_static(ptr noundef null, i64 noundef 0)
  store i64 %33, ptr %8, align 8, !tbaa !7
  br label %34

34:                                               ; preds = %32, %27
  %35 = load i64, ptr %8, align 8, !tbaa !7
  %36 = load i64, ptr %5, align 8, !tbaa !7
  %37 = call i64 @RANGE_EXCL(i64 noundef %36)
  %38 = call zeroext i1 @RB_TEST(i64 noundef %37) #19
  %39 = select i1 %38, i32 3, i32 2
  %40 = sext i32 %39 to i64
  %41 = call i64 @rb_str_cat(i64 noundef %35, ptr noundef @.str.58, i64 noundef %40)
  %42 = load i64, ptr %5, align 8, !tbaa !7
  %43 = call i64 @RANGE_BEG(i64 noundef %42)
  %44 = call zeroext i1 @RB_NIL_P(i64 noundef %43) #19
  br i1 %44, label %49, label %45

45:                                               ; preds = %34
  %46 = load i64, ptr %5, align 8, !tbaa !7
  %47 = call i64 @RANGE_END(i64 noundef %46)
  %48 = call zeroext i1 @RB_NIL_P(i64 noundef %47) #19
  br i1 %48, label %53, label %49

49:                                               ; preds = %45, %34
  %50 = load i64, ptr %5, align 8, !tbaa !7
  %51 = call i64 @RANGE_END(i64 noundef %50)
  %52 = call i64 @rb_inspect(i64 noundef %51)
  store i64 %52, ptr %9, align 8, !tbaa !7
  br label %53

53:                                               ; preds = %49, %45
  %54 = load i64, ptr %9, align 8, !tbaa !7
  %55 = call zeroext i1 @RB_UNDEF_P(i64 noundef %54) #19
  br i1 %55, label %60, label %56

56:                                               ; preds = %53
  %57 = load i64, ptr %8, align 8, !tbaa !7
  %58 = load i64, ptr %9, align 8, !tbaa !7
  %59 = call i64 @rb_str_append(i64 noundef %57, i64 noundef %58)
  br label %60

60:                                               ; preds = %56, %53
  %61 = load i64, ptr %8, align 8, !tbaa !7
  store i64 %61, ptr %4, align 8
  store i32 1, ptr %10, align 4
  br label %62

62:                                               ; preds = %60, %13
  call void @llvm.lifetime.end.p0(i64 8, ptr %9) #18
  call void @llvm.lifetime.end.p0(i64 8, ptr %8) #18
  %63 = load i64, ptr %4, align 8
  ret i64 %63
}