; Function Attrs: nounwind sspstrong uwtable
define internal i64 @inspect_range(i64 noundef %0, i64 %1, i32 noundef %2) #0 {
  %.not = icmp eq i32 %2, 0
  %4 = inttoptr i64 %0 to ptr
  br i1 %.not, label %18, label %5

5:                                                ; preds = %3
  %6 = load i64, ptr %4, align 8, !tbaa !11
  %7 = and i64 %6, 1040384
  %.not.i.i.i = icmp eq i64 %7, 0
  br i1 %.not.i.i.i, label %10, label %8

8:                                                ; preds = %5
  %9 = getelementptr inbounds nuw i8, ptr %4, i64 16
  br label %RANGE_EXCL.exit

10:                                               ; preds = %5
  %11 = getelementptr inbounds nuw i8, ptr %4, i64 24
  %12 = load ptr, ptr %11, align 8, !tbaa !13
  br label %RANGE_EXCL.exit

RANGE_EXCL.exit:                                  ; preds = %8, %10
  %.0.i.i.i = phi ptr [ %9, %8 ], [ %12, %10 ]
  %13 = getelementptr i8, ptr %.0.i.i.i, i64 16
  %14 = load i64, ptr %13, align 8, !tbaa !7
  %15 = and i64 %14, -5
  %.not29 = icmp eq i64 %15, 0
  %16 = select i1 %.not29, ptr @.str.60, ptr @.str.59
  %17 = tail call i64 @rb_str_new_cstr(ptr noundef nonnull %16) #13
  br label %.thread

18:                                               ; preds = %3
  %19 = getelementptr inbounds nuw i8, ptr %4, i64 16
  %20 = load i64, ptr %19, align 8, !tbaa !13
  %21 = icmp eq i64 %20, 4
  br i1 %21, label %22, label %31

22:                                               ; preds = %18
  %23 = load i64, ptr %4, align 8, !tbaa !11
  %24 = and i64 %23, 1040384
  %.not.i.i.i17 = icmp eq i64 %24, 0
  br i1 %.not.i.i.i17, label %25, label %RANGE_END.exit

25:                                               ; preds = %22
  %26 = getelementptr inbounds nuw i8, ptr %4, i64 24
  %27 = load ptr, ptr %26, align 8, !tbaa !13
  br label %RANGE_END.exit

RANGE_END.exit:                                   ; preds = %22, %25
  %.0.i.i.i18 = phi ptr [ %27, %25 ], [ %19, %22 ]
  %28 = getelementptr i8, ptr %.0.i.i.i18, i64 8
  %29 = load i64, ptr %28, align 8, !tbaa !7
  %30 = icmp eq i64 %29, 4
  br i1 %30, label %31, label %34

31:                                               ; preds = %RANGE_END.exit, %18
  %32 = tail call i64 @rb_inspect(i64 noundef %20) #13
  %33 = tail call i64 @rb_str_dup(i64 noundef %32) #13
  br label %36

34:                                               ; preds = %RANGE_END.exit
  %35 = tail call i64 @rb_str_new_static(ptr noundef null, i64 noundef 0) #13
  br label %36

36:                                               ; preds = %34, %31
  %.015 = phi i64 [ %33, %31 ], [ %35, %34 ]
  %37 = load i64, ptr %4, align 8, !tbaa !11
  %38 = and i64 %37, 1040384
  %.not.i.i.i19 = icmp eq i64 %38, 0
  br i1 %.not.i.i.i19, label %39, label %RANGE_EXCL.exit21

39:                                               ; preds = %36
  %40 = getelementptr inbounds nuw i8, ptr %4, i64 24
  %41 = load ptr, ptr %40, align 8, !tbaa !13
  br label %RANGE_EXCL.exit21

RANGE_EXCL.exit21:                                ; preds = %36, %39
  %.0.i.i.i20 = phi ptr [ %41, %39 ], [ %19, %36 ]
  %42 = getelementptr i8, ptr %.0.i.i.i20, i64 16
  %43 = load i64, ptr %42, align 8, !tbaa !7
  %44 = and i64 %43, -5
  %.not30 = icmp eq i64 %44, 0
  %45 = select i1 %.not30, i64 2, i64 3
  %46 = tail call i64 @rb_str_cat(i64 noundef %.015, ptr noundef nonnull @.str.58, i64 noundef %45) #13
  %47 = load i64, ptr %19, align 8, !tbaa !13
  %48 = icmp eq i64 %47, 4
  %.pre = load i64, ptr %4, align 8, !tbaa !11
  %.pre31 = and i64 %.pre, 1040384
  br i1 %48, label %RANGE_EXCL.exit21._crit_edge, label %49

49:                                               ; preds = %RANGE_EXCL.exit21
  %.not.i.i.i22 = icmp eq i64 %.pre31, 0
  br i1 %.not.i.i.i22, label %50, label %RANGE_END.exit24

50:                                               ; preds = %49
  %51 = getelementptr inbounds nuw i8, ptr %4, i64 24
  %52 = load ptr, ptr %51, align 8, !tbaa !13
  br label %RANGE_END.exit24

RANGE_END.exit24:                                 ; preds = %49, %50
  %.0.i.i.i23 = phi ptr [ %52, %50 ], [ %19, %49 ]
  %53 = getelementptr i8, ptr %.0.i.i.i23, i64 8
  %54 = load i64, ptr %53, align 8, !tbaa !7
  %55 = icmp eq i64 %54, 4
  br i1 %55, label %.thread, label %RANGE_EXCL.exit21._crit_edge

RANGE_EXCL.exit21._crit_edge:                     ; preds = %RANGE_EXCL.exit21, %RANGE_END.exit24
  %.not.i.i.i25 = icmp eq i64 %.pre31, 0
  br i1 %.not.i.i.i25, label %56, label %59

56:                                               ; preds = %RANGE_EXCL.exit21._crit_edge
  %57 = getelementptr inbounds nuw i8, ptr %4, i64 24
  %58 = load ptr, ptr %57, align 8, !tbaa !13
  br label %59

59:                                               ; preds = %56, %RANGE_EXCL.exit21._crit_edge
  %.0.i.i.i26 = phi ptr [ %58, %56 ], [ %19, %RANGE_EXCL.exit21._crit_edge ]
  %60 = getelementptr i8, ptr %.0.i.i.i26, i64 8
  %61 = load i64, ptr %60, align 8, !tbaa !7
  %62 = tail call i64 @rb_inspect(i64 noundef %61) #13
  %63 = icmp eq i64 %62, 36
  br i1 %63, label %.thread, label %64

64:                                               ; preds = %59
  %65 = tail call i64 @rb_str_append(i64 noundef %.015, i64 noundef %62) #13
  br label %.thread

.thread:                                          ; preds = %RANGE_END.exit24, %59, %64, %RANGE_EXCL.exit
  %.016 = phi i64 [ %17, %RANGE_EXCL.exit ], [ %.015, %64 ], [ %.015, %59 ], [ %.015, %RANGE_END.exit24 ]
  ret i64 %.016
}